; Function Attrs: mustprogress uwtable
define void @_ZN5ZXing10BigInteger8MultiplyERKS0_S2_RS0_(ptr noundef nonnull align 8 captures(address) dereferenceable(32) %0, ptr noundef nonnull align 8 captures(address) dereferenceable(32) %1, ptr noundef nonnull align 8 dereferenceable(32) initializes((0, 1)) %2) local_unnamed_addr #0 align 2 personality ptr @__gxx_personality_v0 {
  %4 = getelementptr inbounds nuw i8, ptr %0, i64 8
  %5 = load ptr, ptr %4, align 8, !tbaa !22
  %6 = getelementptr inbounds nuw i8, ptr %0, i64 16
  %7 = load ptr, ptr %6, align 8, !tbaa !22
  %8 = icmp eq ptr %5, %7
  br i1 %8, label %15, label %9

9:                                                ; preds = %3
  %10 = getelementptr inbounds nuw i8, ptr %1, i64 8
  %11 = load ptr, ptr %10, align 8, !tbaa !22
  %12 = getelementptr inbounds nuw i8, ptr %1, i64 16
  %13 = load ptr, ptr %12, align 8, !tbaa !22
  %14 = icmp eq ptr %11, %13
  br i1 %14, label %15, label %21

15:                                               ; preds = %9, %3
  store i8 0, ptr %2, align 8, !tbaa !34
  %16 = getelementptr inbounds nuw i8, ptr %2, i64 8
  %17 = load ptr, ptr %16, align 8, !tbaa !15
  %18 = getelementptr inbounds nuw i8, ptr %2, i64 16
  %19 = load ptr, ptr %18, align 8, !tbaa !18
  %.not.i.i = icmp eq ptr %19, %17
  br i1 %.not.i.i, label %_ZNSt6vectorImSaImEE5clearEv.exit, label %20

20:                                               ; preds = %15
  store ptr %17, ptr %18, align 8, !tbaa !18
  br label %_ZNSt6vectorImSaImEE5clearEv.exit

21:                                               ; preds = %9
  %22 = load i8, ptr %0, align 8, !tbaa !34, !range !39, !noundef !40
  %23 = load i8, ptr %1, align 8, !tbaa !34, !range !39, !noundef !40
  %24 = icmp ne i8 %22, %23
  %25 = zext i1 %24 to i8
  store i8 %25, ptr %2, align 8, !tbaa !34
  %26 = getelementptr inbounds nuw i8, ptr %2, i64 8
  tail call fastcc void @_ZN5ZXingL6MulMagERKSt6vectorImSaImEES4_RS2_(ptr noundef nonnull align 8 dereferenceable(24) %4, ptr noundef nonnull align 8 dereferenceable(24) %10, ptr noundef nonnull align 8 dereferenceable(24) %26)
  br label %_ZNSt6vectorImSaImEE5clearEv.exit

_ZNSt6vectorImSaImEE5clearEv.exit:                ; preds = %20, %15, %21
  ret void
}